; Function Attrs: mustprogress nofree norecurse nosync nounwind willreturn memory(argmem: readwrite) uwtable
define dso_local void @_ZN4Luau7CodeGen3X6413IrRegAllocX6414freeLastUseRegERNS0_6IrInstEj(ptr nocapture noundef nonnull writeonly align 8 dereferenceable(256) %0, ptr nocapture noundef nonnull align 4 dereferenceable(43) %1, i32 noundef %2) local_unnamed_addr #0 align 2 {
  %4 = getelementptr inbounds i8, ptr %1, i64 32
  %5 = load i32, ptr %4, align 4
  %6 = icmp ne i32 %5, %2
  %7 = getelementptr inbounds i8, ptr %1, i64 40
  %8 = load i8, ptr %7, align 4
  %9 = trunc i8 %8 to i1
  %.not6 = select i1 %6, i1 true, i1 %9
  br i1 %.not6, label %23, label %10

10:                                               ; preds = %3
  %11 = getelementptr inbounds i8, ptr %1, i64 38
  %12 = load i8, ptr %11, align 2
  %13 = icmp eq i8 %12, -128
  br i1 %13, label %23, label %14

14:                                               ; preds = %10
  %15 = and i8 %12, 7
  %16 = icmp eq i8 %15, 5
  %17 = lshr i8 %12, 3
  %18 = zext nneg i8 %17 to i64
  %..i = select i1 %16, i64 108, i64 28
  %.9.i = select i1 %16, i64 124, i64 44
  %19 = getelementptr inbounds i8, ptr %0, i64 %..i
  %20 = getelementptr inbounds [16 x i8], ptr %19, i64 0, i64 %18
  store i8 1, ptr %20, align 1
  %21 = getelementptr inbounds i8, ptr %0, i64 %.9.i
  %22 = getelementptr inbounds [16 x i32], ptr %21, i64 0, i64 %18
  store i32 -1, ptr %22, align 4
  store i8 -128, ptr %11, align 2
  br label %23

23:                                               ; preds = %10, %14, %3
  ret void
}